target datalayout = "e-m:e-p270:32:32-p271:32:32-p272:64:64-i64:64-i128:128-f80:128-n8:16:32:64-S128"
target triple = "x86_64-pc-linux-gnu"

%"class.icu_77::FieldPositionHandler" = type <{ ptr, i32, [4 x i8] }>
%"class.icu_77::FieldPositionHandler.base" = type <{ ptr, i32 }>
%"class.icu_77::UObject" = type { ptr }
%"class.icu_77::FieldPositionIteratorHandler" = type { %"class.icu_77::FieldPositionHandler.base", ptr, ptr, i32, i32 }
%"class.icu_77::UVector32" = type { %"class.icu_77::UObject", i32, i32, i32, ptr }

; Function Attrs: inlinehint mustprogress uwtable
define linkonce_odr noundef signext i8 @_ZN6icu_779UVector3214ensureCapacityEiR10UErrorCode(ptr noundef nonnull align 8 dereferenceable(32) %0, i32 noundef %1, ptr noundef nonnull align 4 dereferenceable(4) %2) #8 comdat align 2 {
  %4 = alloca i8, align 1
  %5 = alloca ptr, align 8
  %6 = alloca i32, align 4
  %7 = alloca ptr, align 8
  store ptr %0, ptr %5, align 8, !tbaa !42
  store i32 %1, ptr %6, align 4, !tbaa !8
  store ptr %2, ptr %7, align 8, !tbaa !32
  %8 = load ptr, ptr %5, align 8
  %9 = load i32, ptr %6, align 4, !tbaa !8
  %10 = icmp sge i32 %9, 0
  br i1 %10, label %11, label %17

11:                                               ; preds = %3
  %12 = getelementptr inbounds nuw %"class.icu_77::UVector32", ptr %8, i32 0, i32 2
  %13 = load i32, ptr %12, align 4, !tbaa !47
  %14 = load i32, ptr %6, align 4, !tbaa !8
  %15 = icmp sge i32 %13, %14
  br i1 %15, label %16, label %17

16:                                               ; preds = %11
  store i8 1, ptr %4, align 1
  br label %21

17:                                               ; preds = %11, %3
  %18 = load i32, ptr %6, align 4, !tbaa !8
  %19 = load ptr, ptr %7, align 8, !tbaa !32
  %20 = call noundef signext i8 @_ZN6icu_779UVector3214expandCapacityEiR10UErrorCode(ptr noundef nonnull align 8 dereferenceable(32) %8, i32 noundef %18, ptr noundef nonnull align 4 dereferenceable(4) %19)
  store i8 %20, ptr %4, align 1
  br label %21

21:                                               ; preds = %17, %16
  %22 = load i8, ptr %4, align 1
  ret i8 %22
}

; Function Attrs: inlinehint mustprogress uwtable
define linkonce_odr void @_ZN6icu_779UVector3210addElementEiR10UErrorCode(ptr noundef nonnull align 8 dereferenceable(32) %0, i32 noundef %1, ptr noundef nonnull align 4 dereferenceable(4) %2) #8 comdat align 2 {
  %4 = alloca ptr, align 8
  %5 = alloca i32, align 4
  %6 = alloca ptr, align 8
  store ptr %0, ptr %4, align 8, !tbaa !42
  store i32 %1, ptr %5, align 4, !tbaa !8
  store ptr %2, ptr %6, align 8, !tbaa !32
  %7 = load ptr, ptr %4, align 8
  %8 = getelementptr inbounds nuw %"class.icu_77::UVector32", ptr %7, i32 0, i32 1
  %9 = load i32, ptr %8, align 8, !tbaa !43
  %10 = add nsw i32 %9, 1
  %11 = load ptr, ptr %6, align 8, !tbaa !32
  %12 = call noundef signext i8 @_ZN6icu_779UVector3214ensureCapacityEiR10UErrorCode(ptr noundef nonnull align 8 dereferenceable(32) %7, i32 noundef %10, ptr noundef nonnull align 4 dereferenceable(4) %11)
  %13 = icmp ne i8 %12, 0
  br i1 %13, label %14, label %25

14:                                               ; preds = %3
  %15 = load i32, ptr %5, align 4, !tbaa !8
  %16 = getelementptr inbounds nuw %"class.icu_77::UVector32", ptr %7, i32 0, i32 4
  %17 = load ptr, ptr %16, align 8, !tbaa !46
  %18 = getelementptr inbounds nuw %"class.icu_77::UVector32", ptr %7, i32 0, i32 1
  %19 = load i32, ptr %18, align 8, !tbaa !43
  %20 = sext i32 %19 to i64
  %21 = getelementptr inbounds i32, ptr %17, i64 %20
  store i32 %15, ptr %21, align 4, !tbaa !8
  %22 = getelementptr inbounds nuw %"class.icu_77::UVector32", ptr %7, i32 0, i32 1
  %23 = load i32, ptr %22, align 8, !tbaa !43
  %24 = add nsw i32 %23, 1
  store i32 %24, ptr %22, align 8, !tbaa !43
  br label %25

25:                                               ; preds = %14, %3
  ret void
}

; Function Attrs: inlinehint mustprogress nounwind uwtable
define linkonce_odr noundef i32 @_ZNK6icu_779UVector324sizeEv(ptr noundef nonnull align 8 dereferenceable(32) %0) #2 comdat align 2 {
  %2 = alloca ptr, align 8
  store ptr %0, ptr %2, align 8, !tbaa !42
  %3 = load ptr, ptr %2, align 8
  %4 = getelementptr inbounds nuw %"class.icu_77::UVector32", ptr %3, i32 0, i32 1
  %5 = load i32, ptr %4, align 8, !tbaa !43
  ret i32 %5
}

; Function Attrs: inlinehint mustprogress nounwind uwtable
define internal noundef signext i8 @_ZL9U_SUCCESS10UErrorCode(i32 noundef %0) #2 {
  %2 = alloca i32, align 4
  store i32 %0, ptr %2, align 4, !tbaa !39
  %3 = load i32, ptr %2, align 4, !tbaa !39
  %4 = icmp sle i32 %3, 0
  %5 = zext i1 %4 to i8
  ret i8 %5
}

; Function Attrs: mustprogress uwtable
define void @_ZN6icu_7728FieldPositionIteratorHandler12addAttributeEiii(ptr noundef nonnull align 8 dereferenceable(40) %0, i32 noundef %1, i32 noundef %2, i32 noundef %3) unnamed_addr #4 align 2 {
  %5 = alloca ptr, align 8
  %6 = alloca i32, align 4
  %7 = alloca i32, align 4
  %8 = alloca i32, align 4
  %9 = alloca i32, align 4
  store ptr %0, ptr %5, align 8, !tbaa !28
  store i32 %1, ptr %6, align 4, !tbaa !8
  store i32 %2, ptr %7, align 4, !tbaa !8
  store i32 %3, ptr %8, align 4, !tbaa !8
  %10 = load ptr, ptr %5, align 8
  %11 = getelementptr inbounds nuw %"class.icu_77::FieldPositionIteratorHandler", ptr %10, i32 0, i32 2
  %12 = load ptr, ptr %11, align 8, !tbaa !38
  %13 = icmp ne ptr %12, null
  br i1 %13, label %14, label %59

14:                                               ; preds = %4
  %15 = getelementptr inbounds nuw %"class.icu_77::FieldPositionIteratorHandler", ptr %10, i32 0, i32 3
  %16 = load i32, ptr %15, align 8, !tbaa !40
  %17 = call noundef signext i8 @_ZL9U_SUCCESS10UErrorCode(i32 noundef %16)
  %18 = icmp ne i8 %17, 0
  br i1 %18, label %19, label %59

19:                                               ; preds = %14
  %20 = load i32, ptr %7, align 4, !tbaa !8
  %21 = load i32, ptr %8, align 4, !tbaa !8
  %22 = icmp slt i32 %20, %21
  br i1 %22, label %23, label %59

23:                                               ; preds = %19
  call void @llvm.lifetime.start.p0(i64 4, ptr %9) #10
  %24 = getelementptr inbounds nuw %"class.icu_77::FieldPositionIteratorHandler", ptr %10, i32 0, i32 2
  %25 = load ptr, ptr %24, align 8, !tbaa !38
  %26 = call noundef i32 @_ZNK6icu_779UVector324sizeEv(ptr noundef nonnull align 8 dereferenceable(32) %25)
  store i32 %26, ptr %9, align 4, !tbaa !8
  %27 = getelementptr inbounds nuw %"class.icu_77::FieldPositionIteratorHandler", ptr %10, i32 0, i32 2
  %28 = load ptr, ptr %27, align 8, !tbaa !38
  %29 = getelementptr inbounds nuw %"class.icu_77::FieldPositionIteratorHandler", ptr %10, i32 0, i32 4
  %30 = load i32, ptr %29, align 4, !tbaa !41
  %31 = getelementptr inbounds nuw %"class.icu_77::FieldPositionIteratorHandler", ptr %10, i32 0, i32 3
  call void @_ZN6icu_779UVector3210addElementEiR10UErrorCode(ptr noundef nonnull align 8 dereferenceable(32) %28, i32 noundef %30, ptr noundef nonnull align 4 dereferenceable(4) %31)
  %32 = getelementptr inbounds nuw %"class.icu_77::FieldPositionIteratorHandler", ptr %10, i32 0, i32 2
  %33 = load ptr, ptr %32, align 8, !tbaa !38
  %34 = load i32, ptr %6, align 4, !tbaa !8
  %35 = getelementptr inbounds nuw %"class.icu_77::FieldPositionIteratorHandler", ptr %10, i32 0, i32 3
  call void @_ZN6icu_779UVector3210addElementEiR10UErrorCode(ptr noundef nonnull align 8 dereferenceable(32) %33, i32 noundef %34, ptr noundef nonnull align 4 dereferenceable(4) %35)
  %36 = getelementptr inbounds nuw %"class.icu_77::FieldPositionIteratorHandler", ptr %10, i32 0, i32 2
  %37 = load ptr, ptr %36, align 8, !tbaa !38
  %38 = load i32, ptr %7, align 4, !tbaa !8
  %39 = getelementptr inbounds nuw %"class.icu_77::FieldPositionHandler", ptr %10, i32 0, i32 1
  %40 = load i32, ptr %39, align 8, !tbaa !10
  %41 = add nsw i32 %38, %40
  %42 = getelementptr inbounds nuw %"class.icu_77::FieldPositionIteratorHandler", ptr %10, i32 0, i32 3
  call void @_ZN6icu_779UVector3210addElementEiR10UErrorCode(ptr noundef nonnull align 8 dereferenceable(32) %37, i32 noundef %41, ptr noundef nonnull align 4 dereferenceable(4) %42)
  %43 = getelementptr inbounds nuw %"class.icu_77::FieldPositionIteratorHandler", ptr %10, i32 0, i32 2
  %44 = load ptr, ptr %43, align 8, !tbaa !38
  %45 = load i32, ptr %8, align 4, !tbaa !8
  %46 = getelementptr inbounds nuw %"class.icu_77::FieldPositionHandler", ptr %10, i32 0, i32 1
  %47 = load i32, ptr %46, align 8, !tbaa !10
  %48 = add nsw i32 %45, %47
  %49 = getelementptr inbounds nuw %"class.icu_77::FieldPositionIteratorHandler", ptr %10, i32 0, i32 3
  call void @_ZN6icu_779UVector3210addElementEiR10UErrorCode(ptr noundef nonnull align 8 dereferenceable(32) %44, i32 noundef %48, ptr noundef nonnull align 4 dereferenceable(4) %49)
  %50 = getelementptr inbounds nuw %"class.icu_77::FieldPositionIteratorHandler", ptr %10, i32 0, i32 3
  %51 = load i32, ptr %50, align 8, !tbaa !40
  %52 = call noundef signext i8 @_ZL9U_SUCCESS10UErrorCode(i32 noundef %51)
  %53 = icmp ne i8 %52, 0
  br i1 %53, label %58, label %54

54:                                               ; preds = %23
  %55 = getelementptr inbounds nuw %"class.icu_77::FieldPositionIteratorHandler", ptr %10, i32 0, i32 2
  %56 = load ptr, ptr %55, align 8, !tbaa !38
  %57 = load i32, ptr %9, align 4, !tbaa !8
  call void @_ZN6icu_779UVector327setSizeEi(ptr noundef nonnull align 8 dereferenceable(32) %56, i32 noundef %57)
  br label %58

58:                                               ; preds = %54, %23
  call void @llvm.lifetime.end.p0(i64 4, ptr %9) #10
  br label %59

59:                                               ; preds = %58, %19, %14, %4
  ret void
}