; Function Attrs: mustprogress uwtable
define void @_ZN6icu_7728FieldPositionIteratorHandler12addAttributeEiii(ptr noundef nonnull align 8 dereferenceable(40) %0, i32 noundef %1, i32 noundef %2, i32 noundef %3) unnamed_addr #8 align 2 {
  %5 = getelementptr inbounds nuw i8, ptr %0, i64 24
  %6 = load ptr, ptr %5, align 8, !tbaa !28
  %.not = icmp eq ptr %6, null
  br i1 %.not, label %83, label %7

7:                                                ; preds = %4
  %8 = getelementptr inbounds nuw i8, ptr %0, i64 32
  %9 = load i32, ptr %8, align 8, !tbaa !30
  %10 = icmp slt i32 %9, 1
  %11 = icmp slt i32 %2, %3
  %or.cond = and i1 %11, %10
  br i1 %or.cond, label %12, label %83

12:                                               ; preds = %7
  %13 = getelementptr inbounds nuw i8, ptr %6, i64 8
  %14 = load i32, ptr %13, align 8, !tbaa !32
  %15 = getelementptr inbounds nuw i8, ptr %0, i64 36
  %16 = load i32, ptr %15, align 4, !tbaa !31
  %17 = icmp slt i32 %14, -1
  %18 = getelementptr inbounds nuw i8, ptr %6, i64 12
  %19 = load i32, ptr %18, align 4
  %.not.i.i = icmp sle i32 %19, %14
  %or.cond.i.i = select i1 %17, i1 true, i1 %.not.i.i
  br i1 %or.cond.i.i, label %_ZN6icu_779UVector3214ensureCapacityEiR10UErrorCode.exit.i, label %_ZN6icu_779UVector3214ensureCapacityEiR10UErrorCode.exit.thread.i

_ZN6icu_779UVector3214ensureCapacityEiR10UErrorCode.exit.i: ; preds = %12
  %20 = add nsw i32 %14, 1
  %21 = tail call noundef signext i8 @_ZN6icu_779UVector3214expandCapacityEiR10UErrorCode(ptr noundef nonnull align 8 dereferenceable(32) %6, i32 noundef %20, ptr noundef nonnull align 4 dereferenceable(4) %8)
  %.not.i = icmp eq i8 %21, 0
  br i1 %.not.i, label %_ZN6icu_779UVector3210addElementEiR10UErrorCode.exit, label %_ZN6icu_779UVector3214ensureCapacityEiR10UErrorCode.exit._ZN6icu_779UVector3214ensureCapacityEiR10UErrorCode.exit.thread_crit_edge.i

_ZN6icu_779UVector3214ensureCapacityEiR10UErrorCode.exit._ZN6icu_779UVector3214ensureCapacityEiR10UErrorCode.exit.thread_crit_edge.i: ; preds = %_ZN6icu_779UVector3214ensureCapacityEiR10UErrorCode.exit.i
  %.pre.i = load i32, ptr %13, align 8, !tbaa !32
  br label %_ZN6icu_779UVector3214ensureCapacityEiR10UErrorCode.exit.thread.i

_ZN6icu_779UVector3214ensureCapacityEiR10UErrorCode.exit.thread.i: ; preds = %_ZN6icu_779UVector3214ensureCapacityEiR10UErrorCode.exit._ZN6icu_779UVector3214ensureCapacityEiR10UErrorCode.exit.thread_crit_edge.i, %12
  %22 = phi i32 [ %.pre.i, %_ZN6icu_779UVector3214ensureCapacityEiR10UErrorCode.exit._ZN6icu_779UVector3214ensureCapacityEiR10UErrorCode.exit.thread_crit_edge.i ], [ %14, %12 ]
  %23 = getelementptr inbounds nuw i8, ptr %6, i64 24
  %24 = load ptr, ptr %23, align 8, !tbaa !35
  %25 = sext i32 %22 to i64
  %26 = getelementptr inbounds i32, ptr %24, i64 %25
  store i32 %16, ptr %26, align 4, !tbaa !36
  %27 = load i32, ptr %13, align 8, !tbaa !32
  %28 = add nsw i32 %27, 1
  store i32 %28, ptr %13, align 8, !tbaa !32
  br label %_ZN6icu_779UVector3210addElementEiR10UErrorCode.exit

_ZN6icu_779UVector3210addElementEiR10UErrorCode.exit: ; preds = %_ZN6icu_779UVector3214ensureCapacityEiR10UErrorCode.exit.i, %_ZN6icu_779UVector3214ensureCapacityEiR10UErrorCode.exit.thread.i
  %29 = load ptr, ptr %5, align 8, !tbaa !28
  %30 = getelementptr inbounds nuw i8, ptr %29, i64 8
  %31 = load i32, ptr %30, align 8, !tbaa !32
  %32 = icmp slt i32 %31, -1
  %33 = getelementptr inbounds nuw i8, ptr %29, i64 12
  %34 = load i32, ptr %33, align 4
  %.not.i.i9 = icmp sle i32 %34, %31
  %or.cond.i.i10 = select i1 %32, i1 true, i1 %.not.i.i9
  br i1 %or.cond.i.i10, label %_ZN6icu_779UVector3214ensureCapacityEiR10UErrorCode.exit.i12, label %_ZN6icu_779UVector3214ensureCapacityEiR10UErrorCode.exit.thread.i11

_ZN6icu_779UVector3214ensureCapacityEiR10UErrorCode.exit.i12: ; preds = %_ZN6icu_779UVector3210addElementEiR10UErrorCode.exit
  %35 = add nsw i32 %31, 1
  %36 = tail call noundef signext i8 @_ZN6icu_779UVector3214expandCapacityEiR10UErrorCode(ptr noundef nonnull align 8 dereferenceable(32) %29, i32 noundef %35, ptr noundef nonnull align 4 dereferenceable(4) %8)
  %.not.i13 = icmp eq i8 %36, 0
  br i1 %.not.i13, label %_ZN6icu_779UVector3210addElementEiR10UErrorCode.exit16, label %_ZN6icu_779UVector3214ensureCapacityEiR10UErrorCode.exit._ZN6icu_779UVector3214ensureCapacityEiR10UErrorCode.exit.thread_crit_edge.i14

_ZN6icu_779UVector3214ensureCapacityEiR10UErrorCode.exit._ZN6icu_779UVector3214ensureCapacityEiR10UErrorCode.exit.thread_crit_edge.i14: ; preds = %_ZN6icu_779UVector3214ensureCapacityEiR10UErrorCode.exit.i12
  %.pre.i15 = load i32, ptr %30, align 8, !tbaa !32
  br label %_ZN6icu_779UVector3214ensureCapacityEiR10UErrorCode.exit.thread.i11

_ZN6icu_779UVector3214ensureCapacityEiR10UErrorCode.exit.thread.i11: ; preds = %_ZN6icu_779UVector3214ensureCapacityEiR10UErrorCode.exit._ZN6icu_779UVector3214ensureCapacityEiR10UErrorCode.exit.thread_crit_edge.i14, %_ZN6icu_779UVector3210addElementEiR10UErrorCode.exit
  %37 = phi i32 [ %.pre.i15, %_ZN6icu_779UVector3214ensureCapacityEiR10UErrorCode.exit._ZN6icu_779UVector3214ensureCapacityEiR10UErrorCode.exit.thread_crit_edge.i14 ], [ %31, %_ZN6icu_779UVector3210addElementEiR10UErrorCode.exit ]
  %38 = getelementptr inbounds nuw i8, ptr %29, i64 24
  %39 = load ptr, ptr %38, align 8, !tbaa !35
  %40 = sext i32 %37 to i64
  %41 = getelementptr inbounds i32, ptr %39, i64 %40
  store i32 %1, ptr %41, align 4, !tbaa !36
  %42 = load i32, ptr %30, align 8, !tbaa !32
  %43 = add nsw i32 %42, 1
  store i32 %43, ptr %30, align 8, !tbaa !32
  br label %_ZN6icu_779UVector3210addElementEiR10UErrorCode.exit16

_ZN6icu_779UVector3210addElementEiR10UErrorCode.exit16: ; preds = %_ZN6icu_779UVector3214ensureCapacityEiR10UErrorCode.exit.i12, %_ZN6icu_779UVector3214ensureCapacityEiR10UErrorCode.exit.thread.i11
  %44 = load ptr, ptr %5, align 8, !tbaa !28
  %45 = getelementptr inbounds nuw i8, ptr %0, i64 8
  %46 = load i32, ptr %45, align 8, !tbaa !3
  %47 = add nsw i32 %46, %2
  %48 = getelementptr inbounds nuw i8, ptr %44, i64 8
  %49 = load i32, ptr %48, align 8, !tbaa !32
  %50 = icmp slt i32 %49, -1
  %51 = getelementptr inbounds nuw i8, ptr %44, i64 12
  %52 = load i32, ptr %51, align 4
  %.not.i.i17 = icmp sle i32 %52, %49
  %or.cond.i.i18 = select i1 %50, i1 true, i1 %.not.i.i17
  br i1 %or.cond.i.i18, label %_ZN6icu_779UVector3214ensureCapacityEiR10UErrorCode.exit.i20, label %_ZN6icu_779UVector3214ensureCapacityEiR10UErrorCode.exit.thread.i19

_ZN6icu_779UVector3214ensureCapacityEiR10UErrorCode.exit.i20: ; preds = %_ZN6icu_779UVector3210addElementEiR10UErrorCode.exit16
  %53 = add nsw i32 %49, 1
  %54 = tail call noundef signext i8 @_ZN6icu_779UVector3214expandCapacityEiR10UErrorCode(ptr noundef nonnull align 8 dereferenceable(32) %44, i32 noundef %53, ptr noundef nonnull align 4 dereferenceable(4) %8)
  %.not.i21 = icmp eq i8 %54, 0
  br i1 %.not.i21, label %_ZN6icu_779UVector3210addElementEiR10UErrorCode.exit24, label %_ZN6icu_779UVector3214ensureCapacityEiR10UErrorCode.exit._ZN6icu_779UVector3214ensureCapacityEiR10UErrorCode.exit.thread_crit_edge.i22

_ZN6icu_779UVector3214ensureCapacityEiR10UErrorCode.exit._ZN6icu_779UVector3214ensureCapacityEiR10UErrorCode.exit.thread_crit_edge.i22: ; preds = %_ZN6icu_779UVector3214ensureCapacityEiR10UErrorCode.exit.i20
  %.pre.i23 = load i32, ptr %48, align 8, !tbaa !32
  br label %_ZN6icu_779UVector3214ensureCapacityEiR10UErrorCode.exit.thread.i19

_ZN6icu_779UVector3214ensureCapacityEiR10UErrorCode.exit.thread.i19: ; preds = %_ZN6icu_779UVector3214ensureCapacityEiR10UErrorCode.exit._ZN6icu_779UVector3214ensureCapacityEiR10UErrorCode.exit.thread_crit_edge.i22, %_ZN6icu_779UVector3210addElementEiR10UErrorCode.exit16
  %55 = phi i32 [ %.pre.i23, %_ZN6icu_779UVector3214ensureCapacityEiR10UErrorCode.exit._ZN6icu_779UVector3214ensureCapacityEiR10UErrorCode.exit.thread_crit_edge.i22 ], [ %49, %_ZN6icu_779UVector3210addElementEiR10UErrorCode.exit16 ]
  %56 = getelementptr inbounds nuw i8, ptr %44, i64 24
  %57 = load ptr, ptr %56, align 8, !tbaa !35
  %58 = sext i32 %55 to i64
  %59 = getelementptr inbounds i32, ptr %57, i64 %58
  store i32 %47, ptr %59, align 4, !tbaa !36
  %60 = load i32, ptr %48, align 8, !tbaa !32
  %61 = add nsw i32 %60, 1
  store i32 %61, ptr %48, align 8, !tbaa !32
  br label %_ZN6icu_779UVector3210addElementEiR10UErrorCode.exit24

_ZN6icu_779UVector3210addElementEiR10UErrorCode.exit24: ; preds = %_ZN6icu_779UVector3214ensureCapacityEiR10UErrorCode.exit.i20, %_ZN6icu_779UVector3214ensureCapacityEiR10UErrorCode.exit.thread.i19
  %62 = load ptr, ptr %5, align 8, !tbaa !28
  %63 = load i32, ptr %45, align 8, !tbaa !3
  %64 = add nsw i32 %63, %3
  %65 = getelementptr inbounds nuw i8, ptr %62, i64 8
  %66 = load i32, ptr %65, align 8, !tbaa !32
  %67 = icmp slt i32 %66, -1
  %68 = getelementptr inbounds nuw i8, ptr %62, i64 12
  %69 = load i32, ptr %68, align 4
  %.not.i.i25 = icmp sle i32 %69, %66
  %or.cond.i.i26 = select i1 %67, i1 true, i1 %.not.i.i25
  br i1 %or.cond.i.i26, label %_ZN6icu_779UVector3214ensureCapacityEiR10UErrorCode.exit.i28, label %_ZN6icu_779UVector3214ensureCapacityEiR10UErrorCode.exit.thread.i27

_ZN6icu_779UVector3214ensureCapacityEiR10UErrorCode.exit.i28: ; preds = %_ZN6icu_779UVector3210addElementEiR10UErrorCode.exit24
  %70 = add nsw i32 %66, 1
  %71 = tail call noundef signext i8 @_ZN6icu_779UVector3214expandCapacityEiR10UErrorCode(ptr noundef nonnull align 8 dereferenceable(32) %62, i32 noundef %70, ptr noundef nonnull align 4 dereferenceable(4) %8)
  %.not.i29 = icmp eq i8 %71, 0
  br i1 %.not.i29, label %_ZN6icu_779UVector3210addElementEiR10UErrorCode.exit32, label %_ZN6icu_779UVector3214ensureCapacityEiR10UErrorCode.exit._ZN6icu_779UVector3214ensureCapacityEiR10UErrorCode.exit.thread_crit_edge.i30

_ZN6icu_779UVector3214ensureCapacityEiR10UErrorCode.exit._ZN6icu_779UVector3214ensureCapacityEiR10UErrorCode.exit.thread_crit_edge.i30: ; preds = %_ZN6icu_779UVector3214ensureCapacityEiR10UErrorCode.exit.i28
  %.pre.i31 = load i32, ptr %65, align 8, !tbaa !32
  br label %_ZN6icu_779UVector3214ensureCapacityEiR10UErrorCode.exit.thread.i27

_ZN6icu_779UVector3214ensureCapacityEiR10UErrorCode.exit.thread.i27: ; preds = %_ZN6icu_779UVector3214ensureCapacityEiR10UErrorCode.exit._ZN6icu_779UVector3214ensureCapacityEiR10UErrorCode.exit.thread_crit_edge.i30, %_ZN6icu_779UVector3210addElementEiR10UErrorCode.exit24
  %72 = phi i32 [ %.pre.i31, %_ZN6icu_779UVector3214ensureCapacityEiR10UErrorCode.exit._ZN6icu_779UVector3214ensureCapacityEiR10UErrorCode.exit.thread_crit_edge.i30 ], [ %66, %_ZN6icu_779UVector3210addElementEiR10UErrorCode.exit24 ]
  %73 = getelementptr inbounds nuw i8, ptr %62, i64 24
  %74 = load ptr, ptr %73, align 8, !tbaa !35
  %75 = sext i32 %72 to i64
  %76 = getelementptr inbounds i32, ptr %74, i64 %75
  store i32 %64, ptr %76, align 4, !tbaa !36
  %77 = load i32, ptr %65, align 8, !tbaa !32
  %78 = add nsw i32 %77, 1
  store i32 %78, ptr %65, align 8, !tbaa !32
  br label %_ZN6icu_779UVector3210addElementEiR10UErrorCode.exit32

_ZN6icu_779UVector3210addElementEiR10UErrorCode.exit32: ; preds = %_ZN6icu_779UVector3214ensureCapacityEiR10UErrorCode.exit.i28, %_ZN6icu_779UVector3214ensureCapacityEiR10UErrorCode.exit.thread.i27
  %79 = load i32, ptr %8, align 8, !tbaa !30
  %80 = icmp sgt i32 %79, 0
  br i1 %80, label %81, label %83

81:                                               ; preds = %_ZN6icu_779UVector3210addElementEiR10UErrorCode.exit32
  %82 = load ptr, ptr %5, align 8, !tbaa !28
  tail call void @_ZN6icu_779UVector327setSizeEi(ptr noundef nonnull align 8 dereferenceable(32) %82, i32 noundef %14)
  br label %83

83:                                               ; preds = %_ZN6icu_779UVector3210addElementEiR10UErrorCode.exit32, %81, %7, %4
  ret void
}